; Function Attrs: mustprogress uwtable
define void @_ZN3gmx19SelectionCollection13parseFromFileERKNSt10filesystem7__cxx114pathE(ptr dead_on_unwind noalias nocapture writable sret(%"class.std::vector.65") align 8 %0, ptr nocapture noundef nonnull readonly align 8 dereferenceable(8) %1, ptr noundef nonnull align 8 dereferenceable(40) %2) local_unnamed_addr #0 align 2 personality ptr @__gxx_personality_v0 {
  %4 = alloca ptr, align 8
  %5 = alloca %"class.gmx::TextInputFile", align 8
  %6 = alloca %"class.std::__cxx11::basic_string", align 8
  %7 = alloca %"class.std::__cxx11::basic_string", align 8
  invoke void @_ZN3gmx13TextInputFileC1ERKNSt10filesystem7__cxx114pathE(ptr noundef nonnull align 8 dereferenceable(16) %5, ptr noundef nonnull align 8 dereferenceable(40) %2)
          to label %8 unwind label %22

8:                                                ; preds = %3
  %9 = load ptr, ptr %1, align 8
  %10 = getelementptr inbounds i8, ptr %9, i64 212
  %11 = load i8, ptr %10, align 4
  %12 = trunc i8 %11 to i1
  %13 = getelementptr inbounds i8, ptr %9, i64 216
  %14 = load ptr, ptr %13, align 8
  invoke void @_Z19_gmx_sel_init_lexerPPvP23gmx_ana_selcollection_tPN3gmx10TextWriterEibP19gmx_ana_indexgrps_t(ptr noundef nonnull %4, ptr noundef nonnull %9, ptr noundef null, i32 noundef -1, i1 noundef zeroext %12, ptr noundef %14)
          to label %15 unwind label %24

15:                                               ; preds = %8
  %16 = load ptr, ptr %4, align 8
  %17 = invoke noundef ptr @_ZN3gmx13TextInputFile6handleEv(ptr noundef nonnull align 8 dereferenceable(16) %5)
          to label %18 unwind label %24

18:                                               ; preds = %15
  invoke void @_Z27_gmx_sel_set_lex_input_filePvP8_IO_FILE(ptr noundef %16, ptr noundef %17)
          to label %19 unwind label %24

19:                                               ; preds = %18
  %20 = load ptr, ptr %4, align 8
  call void @_ZNSt7__cxx1112basic_stringIcSt11char_traitsIcESaIcEEC1Ev(ptr noundef nonnull align 8 dereferenceable(32) %6) #22
  invoke fastcc void @_ZN3gmx12_GLOBAL__N_19runParserEPvPNS_15TextInputStreamEbiRKNSt7__cxx1112basic_stringIcSt11char_traitsIcESaIcEEE(ptr dead_on_unwind noalias writable align 8 %0, ptr noundef %20, ptr noundef null, i1 noundef zeroext false, i32 noundef -1, ptr noundef nonnull align 8 dereferenceable(32) %6)
          to label %21 unwind label %26

21:                                               ; preds = %19
  call void @_ZNSt7__cxx1112basic_stringIcSt11char_traitsIcESaIcEED1Ev(ptr noundef nonnull align 8 dereferenceable(32) %6) #22
  call void @_ZN3gmx13TextInputFileD1Ev(ptr noundef nonnull align 8 dereferenceable(16) %5) #22
  ret void

22:                                               ; preds = %3
  %23 = landingpad { ptr, i32 }
          catch ptr @_ZTIN3gmx16GromacsExceptionE
  br label %29

24:                                               ; preds = %18, %15, %8
  %25 = landingpad { ptr, i32 }
          cleanup
          catch ptr @_ZTIN3gmx16GromacsExceptionE
  br label %28

26:                                               ; preds = %19
  %27 = landingpad { ptr, i32 }
          cleanup
          catch ptr @_ZTIN3gmx16GromacsExceptionE
  call void @_ZNSt7__cxx1112basic_stringIcSt11char_traitsIcESaIcEED1Ev(ptr noundef nonnull align 8 dereferenceable(32) %6) #22
  br label %28

28:                                               ; preds = %26, %24
  %.pn = phi { ptr, i32 } [ %27, %26 ], [ %25, %24 ]
  call void @_ZN3gmx13TextInputFileD1Ev(ptr noundef nonnull align 8 dereferenceable(16) %5) #22
  br label %29

29:                                               ; preds = %28, %22
  %.pn.pn = phi { ptr, i32 } [ %.pn, %28 ], [ %23, %22 ]
  %.18 = extractvalue { ptr, i32 } %.pn.pn, 1
  %30 = call i32 @llvm.eh.typeid.for(ptr nonnull @_ZTIN3gmx16GromacsExceptionE) #22
  %31 = icmp eq i32 %.18, %30
  br i1 %31, label %32, label %42

32:                                               ; preds = %29
  %.1 = extractvalue { ptr, i32 } %.pn.pn, 0
  %33 = call ptr @__cxa_begin_catch(ptr %.1) #22
  %34 = call noundef ptr @_ZNKSt7__cxx1112basic_stringIcSt11char_traitsIcESaIcEE5c_strEv(ptr noundef nonnull align 8 dereferenceable(32) %2) #22
  invoke void (ptr, ptr, ...) @_ZN3gmx12formatStringB5cxx11EPKcz(ptr dead_on_unwind nonnull writable sret(%"class.std::__cxx11::basic_string") align 8 %7, ptr noundef nonnull @.str.52, ptr noundef %34)
          to label %35 unwind label %37

35:                                               ; preds = %32
  invoke void @_ZN3gmx16GromacsException14prependContextERKNSt7__cxx1112basic_stringIcSt11char_traitsIcESaIcEEE(ptr noundef nonnull align 8 dereferenceable(24) %33, ptr noundef nonnull align 8 dereferenceable(32) %7)
          to label %36 unwind label %39

36:                                               ; preds = %35
  call void @_ZNSt7__cxx1112basic_stringIcSt11char_traitsIcESaIcEED1Ev(ptr noundef nonnull align 8 dereferenceable(32) %7) #22
  invoke void @__cxa_rethrow() #26
          to label %46 unwind label %37

37:                                               ; preds = %36, %32
  %38 = landingpad { ptr, i32 }
          cleanup
  br label %41

39:                                               ; preds = %35
  %40 = landingpad { ptr, i32 }
          cleanup
  call void @_ZNSt7__cxx1112basic_stringIcSt11char_traitsIcESaIcEED1Ev(ptr noundef nonnull align 8 dereferenceable(32) %7) #22
  br label %41

41:                                               ; preds = %39, %37
  %.pn13 = phi { ptr, i32 } [ %38, %37 ], [ %40, %39 ]
  invoke void @__cxa_end_catch()
          to label %42 unwind label %43

42:                                               ; preds = %41, %29
  %.merged = phi { ptr, i32 } [ %.pn13, %41 ], [ %.pn.pn, %29 ]
  resume { ptr, i32 } %.merged

43:                                               ; preds = %41
  %44 = landingpad { ptr, i32 }
          catch ptr null
  %45 = extractvalue { ptr, i32 } %44, 0
  call void @__clang_call_terminate(ptr %45) #25
  unreachable

46:                                               ; preds = %36
  unreachable
}